target datalayout = "e-m:e-p270:32:32-p271:32:32-p272:64:64-i64:64-i128:128-f80:128-n8:16:32:64-S128"
target triple = "x86_64-unknown-linux-gnu"

%class.btTransform = type { %class.btMatrix3x3, %class.btVector3 }
%class.btMatrix3x3 = type { [3 x %class.btVector3] }
%class.btVector3 = type { [4 x float] }
%class.btTriangleCallback = type { ptr }
%"struct.btCollisionWorld::LocalConvexResult" = type <{ ptr, ptr, %class.btVector3, %class.btVector3, float, [4 x i8] }>
%class.btTriangleConvexcastCallback.base = type <{ %class.btTriangleCallback, ptr, %class.btTransform, %class.btTransform, %class.btTransform, float, float, float }>
%struct.BridgeTriangleConvexcastCallback.18 = type { %class.btTriangleConvexcastCallback.base, ptr, ptr, ptr }
%"struct.btCollisionWorld::ConvexResultCallback" = type <{ ptr, float, i32, i32, [4 x i8] }>
%"struct.btCollisionWorld::LocalShapeInfo" = type { i32, i32 }

; Function Attrs: mustprogress nounwind uwtable
define linkonce_odr dso_local void @_ZN16btCollisionWorld17LocalConvexResultC2EPK17btCollisionObjectPNS_14LocalShapeInfoERK9btVector3S8_f(ptr noundef nonnull align 8 dereferenceable(52) %this, ptr noundef %hitCollisionObject, ptr noundef %localShapeInfo, ptr noundef nonnull align 4 dereferenceable(16) %hitNormalLocal, ptr noundef nonnull align 4 dereferenceable(16) %hitPointLocal, float noundef %hitFraction) unnamed_addr #1 comdat align 2 {
entry:
  %this.addr = alloca ptr, align 8
  %hitCollisionObject.addr = alloca ptr, align 8
  %localShapeInfo.addr = alloca ptr, align 8
  %hitNormalLocal.addr = alloca ptr, align 8
  %hitPointLocal.addr = alloca ptr, align 8
  %hitFraction.addr = alloca float, align 4
  store ptr %this, ptr %this.addr, align 8
  store ptr %hitCollisionObject, ptr %hitCollisionObject.addr, align 8
  store ptr %localShapeInfo, ptr %localShapeInfo.addr, align 8
  store ptr %hitNormalLocal, ptr %hitNormalLocal.addr, align 8
  store ptr %hitPointLocal, ptr %hitPointLocal.addr, align 8
  store float %hitFraction, ptr %hitFraction.addr, align 4
  %this1 = load ptr, ptr %this.addr, align 8
  %m_hitCollisionObject = getelementptr inbounds %"struct.btCollisionWorld::LocalConvexResult", ptr %this1, i32 0, i32 0
  %0 = load ptr, ptr %hitCollisionObject.addr, align 8
  store ptr %0, ptr %m_hitCollisionObject, align 8
  %m_localShapeInfo = getelementptr inbounds %"struct.btCollisionWorld::LocalConvexResult", ptr %this1, i32 0, i32 1
  %1 = load ptr, ptr %localShapeInfo.addr, align 8
  store ptr %1, ptr %m_localShapeInfo, align 8
  %m_hitNormalLocal = getelementptr inbounds %"struct.btCollisionWorld::LocalConvexResult", ptr %this1, i32 0, i32 2
  %2 = load ptr, ptr %hitNormalLocal.addr, align 8
  call void @llvm.memcpy.p0.p0.i64(ptr align 8 %m_hitNormalLocal, ptr align 4 %2, i64 16, i1 false)
  %m_hitPointLocal = getelementptr inbounds %"struct.btCollisionWorld::LocalConvexResult", ptr %this1, i32 0, i32 3
  %3 = load ptr, ptr %hitPointLocal.addr, align 8
  call void @llvm.memcpy.p0.p0.i64(ptr align 8 %m_hitPointLocal, ptr align 4 %3, i64 16, i1 false)
  %m_hitFraction = getelementptr inbounds %"struct.btCollisionWorld::LocalConvexResult", ptr %this1, i32 0, i32 4
  %4 = load float, ptr %hitFraction.addr, align 4
  store float %4, ptr %m_hitFraction, align 8
  ret void
}

; Function Attrs: mustprogress uwtable
define internal noundef float @_ZZN16btCollisionWorld25objectQuerySingleInternalEPK13btConvexShapeRK11btTransformS5_PK24btCollisionObjectWrapperRNS_20ConvexResultCallbackEfEN32BridgeTriangleConvexcastCallback9reportHitE_0RK9btVector3SE_fii(ptr noundef nonnull align 8 dereferenceable(248) %this, ptr noundef nonnull align 4 dereferenceable(16) %hitNormalLocal, ptr noundef nonnull align 4 dereferenceable(16) %hitPointLocal, float noundef %hitFraction, i32 noundef %partId, i32 noundef %triangleIndex) unnamed_addr #2 align 2 {
entry:
  %retval = alloca float, align 4
  %this.addr = alloca ptr, align 8
  %hitNormalLocal.addr = alloca ptr, align 8
  %hitPointLocal.addr = alloca ptr, align 8
  %hitFraction.addr = alloca float, align 4
  %partId.addr = alloca i32, align 4
  %triangleIndex.addr = alloca i32, align 4
  %shapeInfo = alloca %"struct.btCollisionWorld::LocalShapeInfo", align 4
  %convexResult = alloca %"struct.btCollisionWorld::LocalConvexResult", align 8
  %normalInWorldSpace = alloca i8, align 1
  store ptr %this, ptr %this.addr, align 8
  store ptr %hitNormalLocal, ptr %hitNormalLocal.addr, align 8
  store ptr %hitPointLocal, ptr %hitPointLocal.addr, align 8
  store float %hitFraction, ptr %hitFraction.addr, align 4
  store i32 %partId, ptr %partId.addr, align 4
  store i32 %triangleIndex, ptr %triangleIndex.addr, align 4
  %this1 = load ptr, ptr %this.addr, align 8
  %0 = load i32, ptr %partId.addr, align 4
  %m_shapePart = getelementptr inbounds %"struct.btCollisionWorld::LocalShapeInfo", ptr %shapeInfo, i32 0, i32 0
  store i32 %0, ptr %m_shapePart, align 4
  %1 = load i32, ptr %triangleIndex.addr, align 4
  %m_triangleIndex = getelementptr inbounds %"struct.btCollisionWorld::LocalShapeInfo", ptr %shapeInfo, i32 0, i32 1
  store i32 %1, ptr %m_triangleIndex, align 4
  %2 = load float, ptr %hitFraction.addr, align 4
  %m_resultCallback = getelementptr inbounds %struct.BridgeTriangleConvexcastCallback.18, ptr %this1, i32 0, i32 1
  %3 = load ptr, ptr %m_resultCallback, align 8
  %m_closestHitFraction = getelementptr inbounds %"struct.btCollisionWorld::ConvexResultCallback", ptr %3, i32 0, i32 1
  %4 = load float, ptr %m_closestHitFraction, align 8
  %cmp = fcmp ole float %2, %4
  br i1 %cmp, label %if.then, label %if.end

if.then:                                          ; preds = %entry
  %m_collisionObject = getelementptr inbounds %struct.BridgeTriangleConvexcastCallback.18, ptr %this1, i32 0, i32 2
  %5 = load ptr, ptr %m_collisionObject, align 8
  %6 = load ptr, ptr %hitNormalLocal.addr, align 8
  %7 = load ptr, ptr %hitPointLocal.addr, align 8
  %8 = load float, ptr %hitFraction.addr, align 4
  call void @_ZN16btCollisionWorld17LocalConvexResultC2EPK17btCollisionObjectPNS_14LocalShapeInfoERK9btVector3S8_f(ptr noundef nonnull align 8 dereferenceable(52) %convexResult, ptr noundef %5, ptr noundef %shapeInfo, ptr noundef nonnull align 4 dereferenceable(16) %6, ptr noundef nonnull align 4 dereferenceable(16) %7, float noundef %8)
  store i8 1, ptr %normalInWorldSpace, align 1
  %m_resultCallback2 = getelementptr inbounds %struct.BridgeTriangleConvexcastCallback.18, ptr %this1, i32 0, i32 1
  %9 = load ptr, ptr %m_resultCallback2, align 8
  %10 = load i8, ptr %normalInWorldSpace, align 1
  %tobool = trunc i8 %10 to i1
  %vtable = load ptr, ptr %9, align 8
  %vfn = getelementptr inbounds ptr, ptr %vtable, i64 3
  %11 = load ptr, ptr %vfn, align 8
  %call = call noundef float %11(ptr noundef nonnull align 8 dereferenceable(20) %9, ptr noundef nonnull align 8 dereferenceable(52) %convexResult, i1 noundef zeroext %tobool)
  store float %call, ptr %retval, align 4
  br label %return

if.end:                                           ; preds = %entry
  %12 = load float, ptr %hitFraction.addr, align 4
  store float %12, ptr %retval, align 4
  br label %return

return:                                           ; preds = %if.end, %if.then
  %13 = load float, ptr %retval, align 4
  ret float %13
}